target datalayout = "e-m:e-p270:32:32-p271:32:32-p272:64:64-i64:64-i128:128-f80:128-n8:16:32:64-S128"
target triple = "x86_64-pc-linux-gnu"

%struct.ARKodeRelaxMemRec = type { ptr, ptr, ptr, ptr, i32, i64, i64, i64, double, double, double, double, double, double, double, double, double, i32, double, double, double, i32, i64, i64, i64 }
%struct.ARKodeMemRec = type { ptr, double, ptr, i32, i32, double, double, ptr, i32, double, ptr, i32, i32, ptr, ptr, i32, ptr, ptr, i32, ptr, ptr, ptr, ptr, ptr, ptr, ptr, ptr, ptr, ptr, ptr, ptr, ptr, ptr, ptr, i32, ptr, ptr, ptr, i32, ptr, ptr, ptr, ptr, ptr, ptr, i32, i32, i32, double, double, double, double, double, double, double, double, double, double, i32, ptr, i64, i32, i32, i32, i32, i64, i64, i32, i64, i64, i64, i64, i64, i64, i64, double, double, double, double, double, i32, i32, i32, i32, i32, i32, i32, i32, ptr, i32, ptr, ptr, ptr, ptr, i32, i32, i32 }

@.str = private unnamed_addr constant [126 x i8] c"generated/home/dtcxzyw/WorkSpace/Projects/compilers/llvm-opt-benchmark/bench/sundials/sundials/src/arkode/arkode_relaxation.c\00", align 1
@__func__.arkRelaxCreate = private unnamed_addr constant [15 x i8] c"arkRelaxCreate\00", align 1
@.str.15 = private unnamed_addr constant [27 x i8] c"arkode_mem = NULL illegal.\00", align 1
@.str.16 = private unnamed_addr constant [33 x i8] c"The relaxation function is NULL.\00", align 1
@.str.17 = private unnamed_addr constant [42 x i8] c"The relaxation Jacobian function is NULL.\00", align 1
@.str.18 = private unnamed_addr constant [53 x i8] c"The Delta y, Delta e, or get order function is NULL.\00", align 1

; Function Attrs: nounwind uwtable
define i32 @arkRelaxCreate(ptr noundef %0, ptr noundef %1, ptr noundef %2, ptr noundef %3, ptr noundef %4) #0 {
  %6 = alloca i32, align 4
  %7 = alloca ptr, align 8
  %8 = alloca ptr, align 8
  %9 = alloca ptr, align 8
  %10 = alloca ptr, align 8
  %11 = alloca ptr, align 8
  %12 = alloca ptr, align 8
  store ptr %0, ptr %7, align 8
  store ptr %1, ptr %8, align 8
  store ptr %2, ptr %9, align 8
  store ptr %3, ptr %10, align 8
  store ptr %4, ptr %11, align 8
  %13 = load ptr, ptr %7, align 8
  %14 = icmp ne ptr %13, null
  br i1 %14, label %16, label %15

15:                                               ; preds = %5
  call void (ptr, i32, i32, ptr, ptr, ptr, ...) @arkProcessError(ptr noundef null, i32 noundef -21, i32 noundef 691, ptr noundef @__func__.arkRelaxCreate, ptr noundef @.str, ptr noundef @.str.15)
  store i32 -21, ptr %6, align 4
  br label %133

16:                                               ; preds = %5
  %17 = load ptr, ptr %7, align 8
  store ptr %17, ptr %12, align 8
  %18 = load ptr, ptr %8, align 8
  %19 = icmp ne ptr %18, null
  br i1 %19, label %26, label %20

20:                                               ; preds = %16
  %21 = load ptr, ptr %9, align 8
  %22 = icmp ne ptr %21, null
  br i1 %22, label %26, label %23

23:                                               ; preds = %20
  %24 = load ptr, ptr %12, align 8
  %25 = getelementptr inbounds %struct.ARKodeMemRec, ptr %24, i32 0, i32 89
  store i32 0, ptr %25, align 8
  store i32 0, ptr %6, align 4
  br label %133

26:                                               ; preds = %20, %16
  %27 = load ptr, ptr %8, align 8
  %28 = icmp ne ptr %27, null
  br i1 %28, label %31, label %29

29:                                               ; preds = %26
  %30 = load ptr, ptr %12, align 8
  call void (ptr, i32, i32, ptr, ptr, ptr, ...) @arkProcessError(ptr noundef %30, i32 noundef -22, i32 noundef 707, ptr noundef @__func__.arkRelaxCreate, ptr noundef @.str, ptr noundef @.str.16)
  store i32 -22, ptr %6, align 4
  br label %133

31:                                               ; preds = %26
  %32 = load ptr, ptr %9, align 8
  %33 = icmp ne ptr %32, null
  br i1 %33, label %36, label %34

34:                                               ; preds = %31
  %35 = load ptr, ptr %12, align 8
  call void (ptr, i32, i32, ptr, ptr, ptr, ...) @arkProcessError(ptr noundef %35, i32 noundef -22, i32 noundef 714, ptr noundef @__func__.arkRelaxCreate, ptr noundef @.str, ptr noundef @.str.17)
  store i32 -22, ptr %6, align 4
  br label %133

36:                                               ; preds = %31
  %37 = load ptr, ptr %10, align 8
  %38 = icmp ne ptr %37, null
  br i1 %38, label %39, label %42

39:                                               ; preds = %36
  %40 = load ptr, ptr %11, align 8
  %41 = icmp ne ptr %40, null
  br i1 %41, label %44, label %42

42:                                               ; preds = %39, %36
  %43 = load ptr, ptr %12, align 8
  call void (ptr, i32, i32, ptr, ptr, ptr, ...) @arkProcessError(ptr noundef %43, i32 noundef -22, i32 noundef 722, ptr noundef @__func__.arkRelaxCreate, ptr noundef @.str, ptr noundef @.str.18)
  store i32 -22, ptr %6, align 4
  br label %133

44:                                               ; preds = %39
  %45 = load ptr, ptr %12, align 8
  %46 = getelementptr inbounds %struct.ARKodeMemRec, ptr %45, i32 0, i32 90
  %47 = load ptr, ptr %46, align 8
  %48 = icmp ne ptr %47, null
  br i1 %48, label %110, label %49

49:                                               ; preds = %44
  %50 = call noalias ptr @malloc(i64 noundef 200) #7
  %51 = load ptr, ptr %12, align 8
  %52 = getelementptr inbounds %struct.ARKodeMemRec, ptr %51, i32 0, i32 90
  store ptr %50, ptr %52, align 8
  %53 = load ptr, ptr %12, align 8
  %54 = getelementptr inbounds %struct.ARKodeMemRec, ptr %53, i32 0, i32 90
  %55 = load ptr, ptr %54, align 8
  %56 = icmp ne ptr %55, null
  br i1 %56, label %58, label %57

57:                                               ; preds = %49
  store i32 -20, ptr %6, align 4
  br label %133

58:                                               ; preds = %49
  %59 = load ptr, ptr %12, align 8
  %60 = getelementptr inbounds %struct.ARKodeMemRec, ptr %59, i32 0, i32 90
  %61 = load ptr, ptr %60, align 8
  call void @llvm.memset.p0.i64(ptr align 8 %61, i8 0, i64 200, i1 false)
  %62 = load ptr, ptr %12, align 8
  %63 = getelementptr inbounds %struct.ARKodeMemRec, ptr %62, i32 0, i32 90
  %64 = load ptr, ptr %63, align 8
  %65 = getelementptr inbounds %struct.ARKodeRelaxMemRec, ptr %64, i32 0, i32 4
  store i32 10, ptr %65, align 8
  %66 = load ptr, ptr %12, align 8
  %67 = getelementptr inbounds %struct.ARKodeMemRec, ptr %66, i32 0, i32 90
  %68 = load ptr, ptr %67, align 8
  %69 = getelementptr inbounds %struct.ARKodeRelaxMemRec, ptr %68, i32 0, i32 14
  store double 8.000000e-01, ptr %69, align 8
  %70 = load ptr, ptr %12, align 8
  %71 = getelementptr inbounds %struct.ARKodeMemRec, ptr %70, i32 0, i32 90
  %72 = load ptr, ptr %71, align 8
  %73 = getelementptr inbounds %struct.ARKodeRelaxMemRec, ptr %72, i32 0, i32 15
  store double 1.200000e+00, ptr %73, align 8
  %74 = load ptr, ptr %12, align 8
  %75 = getelementptr inbounds %struct.ARKodeMemRec, ptr %74, i32 0, i32 90
  %76 = load ptr, ptr %75, align 8
  %77 = getelementptr inbounds %struct.ARKodeRelaxMemRec, ptr %76, i32 0, i32 16
  store double 2.500000e-01, ptr %77, align 8
  %78 = load ptr, ptr %12, align 8
  %79 = getelementptr inbounds %struct.ARKodeMemRec, ptr %78, i32 0, i32 90
  %80 = load ptr, ptr %79, align 8
  %81 = getelementptr inbounds %struct.ARKodeRelaxMemRec, ptr %80, i32 0, i32 17
  store i32 1, ptr %81, align 8
  %82 = load ptr, ptr %12, align 8
  %83 = getelementptr inbounds %struct.ARKodeMemRec, ptr %82, i32 0, i32 90
  %84 = load ptr, ptr %83, align 8
  %85 = getelementptr inbounds %struct.ARKodeRelaxMemRec, ptr %84, i32 0, i32 18
  store double 0x3CE4000000000000, ptr %85, align 8
  %86 = load ptr, ptr %12, align 8
  %87 = getelementptr inbounds %struct.ARKodeMemRec, ptr %86, i32 0, i32 90
  %88 = load ptr, ptr %87, align 8
  %89 = getelementptr inbounds %struct.ARKodeRelaxMemRec, ptr %88, i32 0, i32 19
  store double 0x3CD0000000000000, ptr %89, align 8
  %90 = load ptr, ptr %12, align 8
  %91 = getelementptr inbounds %struct.ARKodeMemRec, ptr %90, i32 0, i32 90
  %92 = load ptr, ptr %91, align 8
  %93 = getelementptr inbounds %struct.ARKodeRelaxMemRec, ptr %92, i32 0, i32 20
  store double 0x3D06849B86A12B9B, ptr %93, align 8
  %94 = load ptr, ptr %12, align 8
  %95 = getelementptr inbounds %struct.ARKodeMemRec, ptr %94, i32 0, i32 90
  %96 = load ptr, ptr %95, align 8
  %97 = getelementptr inbounds %struct.ARKodeRelaxMemRec, ptr %96, i32 0, i32 21
  store i32 10, ptr %97, align 8
  %98 = load ptr, ptr %12, align 8
  %99 = getelementptr inbounds %struct.ARKodeMemRec, ptr %98, i32 0, i32 90
  %100 = load ptr, ptr %99, align 8
  %101 = getelementptr inbounds %struct.ARKodeRelaxMemRec, ptr %100, i32 0, i32 13
  store double 1.000000e+00, ptr %101, align 8
  %102 = load ptr, ptr %12, align 8
  %103 = getelementptr inbounds %struct.ARKodeMemRec, ptr %102, i32 0, i32 73
  %104 = load i64, ptr %103, align 8
  %105 = add nsw i64 %104, 12
  store i64 %105, ptr %103, align 8
  %106 = load ptr, ptr %12, align 8
  %107 = getelementptr inbounds %struct.ARKodeMemRec, ptr %106, i32 0, i32 74
  %108 = load i64, ptr %107, align 8
  %109 = add nsw i64 %108, 14
  store i64 %109, ptr %107, align 8
  br label %110

110:                                              ; preds = %58, %44
  %111 = load ptr, ptr %8, align 8
  %112 = load ptr, ptr %12, align 8
  %113 = getelementptr inbounds %struct.ARKodeMemRec, ptr %112, i32 0, i32 90
  %114 = load ptr, ptr %113, align 8
  %115 = getelementptr inbounds %struct.ARKodeRelaxMemRec, ptr %114, i32 0, i32 0
  store ptr %111, ptr %115, align 8
  %116 = load ptr, ptr %9, align 8
  %117 = load ptr, ptr %12, align 8
  %118 = getelementptr inbounds %struct.ARKodeMemRec, ptr %117, i32 0, i32 90
  %119 = load ptr, ptr %118, align 8
  %120 = getelementptr inbounds %struct.ARKodeRelaxMemRec, ptr %119, i32 0, i32 1
  store ptr %116, ptr %120, align 8
  %121 = load ptr, ptr %10, align 8
  %122 = load ptr, ptr %12, align 8
  %123 = getelementptr inbounds %struct.ARKodeMemRec, ptr %122, i32 0, i32 90
  %124 = load ptr, ptr %123, align 8
  %125 = getelementptr inbounds %struct.ARKodeRelaxMemRec, ptr %124, i32 0, i32 2
  store ptr %121, ptr %125, align 8
  %126 = load ptr, ptr %11, align 8
  %127 = load ptr, ptr %12, align 8
  %128 = getelementptr inbounds %struct.ARKodeMemRec, ptr %127, i32 0, i32 90
  %129 = load ptr, ptr %128, align 8
  %130 = getelementptr inbounds %struct.ARKodeRelaxMemRec, ptr %129, i32 0, i32 3
  store ptr %126, ptr %130, align 8
  %131 = load ptr, ptr %12, align 8
  %132 = getelementptr inbounds %struct.ARKodeMemRec, ptr %131, i32 0, i32 89
  store i32 1, ptr %132, align 8
  store i32 0, ptr %6, align 4
  br label %133

133:                                              ; preds = %110, %57, %42, %34, %29, %23, %15
  %134 = load i32, ptr %6, align 4
  ret i32 %134
}