; Function Attrs: nounwind uwtable
define range(i32 -22, 1) i32 @arkRelaxCreate(ptr noundef %0, ptr noundef %1, ptr noundef %2, ptr noundef %3, ptr noundef %4) local_unnamed_addr #0 {
  %.not = icmp eq ptr %0, null
  br i1 %.not, label %6, label %7

6:                                                ; preds = %5
  tail call void (ptr, i32, i32, ptr, ptr, ptr, ...) @arkProcessError(ptr noundef null, i32 noundef -21, i32 noundef 691, ptr noundef nonnull @__func__.arkRelaxCreate, ptr noundef nonnull @.str, ptr noundef nonnull @.str.15) #8
  br label %50

7:                                                ; preds = %5
  %8 = icmp ne ptr %1, null
  %9 = icmp ne ptr %2, null
  %or.cond = or i1 %8, %9
  br i1 %or.cond, label %12, label %10

10:                                               ; preds = %7
  %11 = getelementptr inbounds nuw i8, ptr %0, i64 640
  store i32 0, ptr %11, align 8
  br label %50

12:                                               ; preds = %7
  br i1 %8, label %14, label %13

13:                                               ; preds = %12
  tail call void (ptr, i32, i32, ptr, ptr, ptr, ...) @arkProcessError(ptr noundef nonnull %0, i32 noundef -22, i32 noundef 707, ptr noundef nonnull @__func__.arkRelaxCreate, ptr noundef nonnull @.str, ptr noundef nonnull @.str.16) #8
  br label %50

14:                                               ; preds = %12
  br i1 %9, label %16, label %15

15:                                               ; preds = %14
  tail call void (ptr, i32, i32, ptr, ptr, ptr, ...) @arkProcessError(ptr noundef nonnull %0, i32 noundef -22, i32 noundef 714, ptr noundef nonnull @__func__.arkRelaxCreate, ptr noundef nonnull @.str, ptr noundef nonnull @.str.17) #8
  br label %50

16:                                               ; preds = %14
  %17 = icmp ne ptr %3, null
  %18 = icmp ne ptr %4, null
  %or.cond3 = and i1 %17, %18
  br i1 %or.cond3, label %20, label %19

19:                                               ; preds = %16
  tail call void (ptr, i32, i32, ptr, ptr, ptr, ...) @arkProcessError(ptr noundef nonnull %0, i32 noundef -22, i32 noundef 722, ptr noundef nonnull @__func__.arkRelaxCreate, ptr noundef nonnull @.str, ptr noundef nonnull @.str.18) #8
  br label %50

20:                                               ; preds = %16
  %21 = getelementptr inbounds nuw i8, ptr %0, i64 648
  %22 = load ptr, ptr %21, align 8
  %.not46 = icmp eq ptr %22, null
  br i1 %.not46, label %23, label %41

23:                                               ; preds = %20
  %calloc = tail call dereferenceable_or_null(200) ptr @calloc(i64 1, i64 200)
  store ptr %calloc, ptr %21, align 8
  %.not47 = icmp eq ptr %calloc, null
  br i1 %.not47, label %50, label %24

24:                                               ; preds = %23
  %25 = getelementptr inbounds nuw i8, ptr %calloc, i64 32
  store i32 10, ptr %25, align 8
  %26 = getelementptr inbounds nuw i8, ptr %calloc, i64 112
  store double 8.000000e-01, ptr %26, align 8
  %27 = getelementptr inbounds nuw i8, ptr %calloc, i64 120
  store double 1.200000e+00, ptr %27, align 8
  %28 = getelementptr inbounds nuw i8, ptr %calloc, i64 128
  store double 2.500000e-01, ptr %28, align 8
  %29 = getelementptr inbounds nuw i8, ptr %calloc, i64 136
  store i32 1, ptr %29, align 8
  %30 = getelementptr inbounds nuw i8, ptr %calloc, i64 144
  store double 0x3CE4000000000000, ptr %30, align 8
  %31 = getelementptr inbounds nuw i8, ptr %calloc, i64 152
  store double 0x3CD0000000000000, ptr %31, align 8
  %32 = getelementptr inbounds nuw i8, ptr %calloc, i64 160
  store double 0x3D06849B86A12B9B, ptr %32, align 8
  %33 = getelementptr inbounds nuw i8, ptr %calloc, i64 168
  store i32 10, ptr %33, align 8
  %34 = getelementptr inbounds nuw i8, ptr %calloc, i64 104
  store double 1.000000e+00, ptr %34, align 8
  %35 = getelementptr inbounds nuw i8, ptr %0, i64 544
  %36 = load i64, ptr %35, align 8
  %37 = add nsw i64 %36, 12
  store i64 %37, ptr %35, align 8
  %38 = getelementptr inbounds nuw i8, ptr %0, i64 552
  %39 = load i64, ptr %38, align 8
  %40 = add nsw i64 %39, 14
  store i64 %40, ptr %38, align 8
  br label %41

41:                                               ; preds = %24, %20
  %42 = phi ptr [ %calloc, %24 ], [ %22, %20 ]
  store ptr %1, ptr %42, align 8
  %43 = load ptr, ptr %21, align 8
  %44 = getelementptr inbounds nuw i8, ptr %43, i64 8
  store ptr %2, ptr %44, align 8
  %45 = load ptr, ptr %21, align 8
  %46 = getelementptr inbounds nuw i8, ptr %45, i64 16
  store ptr %3, ptr %46, align 8
  %47 = load ptr, ptr %21, align 8
  %48 = getelementptr inbounds nuw i8, ptr %47, i64 24
  store ptr %4, ptr %48, align 8
  %49 = getelementptr inbounds nuw i8, ptr %0, i64 640
  store i32 1, ptr %49, align 8
  br label %50

50:                                               ; preds = %23, %41, %19, %15, %13, %10, %6
  %.0 = phi i32 [ 0, %41 ], [ -22, %19 ], [ -22, %15 ], [ -22, %13 ], [ 0, %10 ], [ -21, %6 ], [ -20, %23 ]
  ret i32 %.0
}